(lp0
S'Butter salted'
p1
aS'Butter oil anhydrous'
p2
aS'Cheese blue'
p3
aS'Cheese brie'
p4
aS'Cheese caraway'
p5
aS'Cheese cheddar'
p6
aS'Cheese colby'
p7
aS'Cheese cottage creamed large or small curd'
p8
aS'Cheese cottage nonfat uncreamed dry large or small curd'
p9
aS'Cheese cottage lowfat 1 milkfat'
p10
aS'Cheese edam'
p11
aS'Cheese feta'
p12
aS'Cheese gouda'
p13
aS'Cheese gruyere'
p14
aS'Cheese monterey'
p15
aS'Cheese mozzarella whole milk'
p16
aS'Cheese mozzarella whole milk low moisture'
p17
aS'Cheese parmesan grated'
p18
aS'Cheese provolone'
p19
aS'Cheese ricotta whole milk'
p20
aS'Cheese romano'
p21
aS'Cheese swiss'
p22
aS'Cheese pasteurized process American fortified with vitamin D'
p23
aS'Cream fluid half and half'
p24
aS'Cream fluid light (coffee cream or table cream)'
p25
aS'Cream fluid light whipping'
p26
aS'Cream fluid heavy whipping'
p27
aS'Cream whipped cream topping pressurized'
p28
aS'Cream sour reduced fat cultured'
p29
aS'Milk filled fluid with blend of hydrogenated vegetable oils'
p30
aS'Dessert topping powdered 15 ounce prepared with 1/2 cup milk'
p31
aS'Dessert topping semi solid frozen'
p32
aS'Milk whole 325 milkfat with added vitamin D'
p33
aS'Milk reduced fat fluid 2 milkfat with added nonfat milk solids and vitamin A and vitamin D'
p34
aS'Milk nonfat fluid with added vitamin A and vitamin D (fat free or skim)'
p35
aS'Milk buttermilk fluid cultured lowfat'
p36
aS'Milk dry whole with added vitamin D'
p37
aS'Milk dry nonfat instant with added vitamin A and vitamin D'
p38
aS'Milk chocolate fluid commercial whole with added vitamin A and vitamin D'
p39
aS'Milk shakes thick vanilla'
p40
aS'Yogurt plain whole milk 8 grams protein per 8 ounce'
p41
aS'Yogurt vanilla low fat 11 grams protein per 8 ounce'
p42
aS'Yogurt fruit low fat 9 grams protein per 8 ounce'
p43
aS'Egg whole raw fresh'
p44
aS'Egg white raw fresh'
p45
aS'Egg yolk raw fresh'
p46
aS'Egg yolk raw frozen pasteurized'
p47
aS'Egg duck whole fresh raw'
p48
aS'Egg turkey whole fresh raw'
p49
aS'Cheese goat hard type'
p50
aS'Cheese goat semisoft type'
p51
aS'Cheese sauce prepared from recipe'
p52
aS'Cheese mexican queso anejo'
p53
aS'Cheese mexican queso asadero'
p54
aS'Egg white raw frozen pasteurized'
p55
aS'Sour cream light'
p56
aS'Yogurt vanilla or lemon flavor nonfat milk sweetened with lowcalorie sweetener'
p57
aS'Cheese cream fat free'
p58
aS'KRAFT CHEEZ WHIZ LIGHT Pasteurized Process Cheese Product'
p59
aS'Cream half and half fat free'
p60
aS'Yogurt fruit lowfat with low calorie sweetener'
p61
aS'Cheese Mexican blend reduced fat'
p62
aS'Yogurt fruit variety nonfat fortified with vitamin D'
p63
aS'Yogurt vanilla low fat 11 grams protein per 8 ounce fortified with vitamin D'
p64
aS'Yogurt vanilla or lemon flavor nonfat milk sweetened with lowcalorie sweetener fortified with vitamin D'
p65
aS'Cheese dry white queso seco'
p66
aS'Cheese fresh queso fresco'
p67
aS'Ice cream sandwich made with light ice cream vanilla'
p68
aS'Yogurt Greek plain nonfat'
p69
aS'Yogurt Greek CHOBANI CHAMPIONS VERY BERRY'
p70
aS'Spices allspice ground'
p71
aS'Spices anise seed'
p72
aS'Spices basil dried'
p73
aS'Spices bay leaf'
p74
aS'Spices cardamom'
p75
aS'Spices chervil dried'
p76
aS'Spices chili powder'
p77
aS'Spices cinnamon ground'
p78
aS'Spices cloves ground'
p79
aS'Spices coriander leaf dried'
p80
aS'Spices cumin seed'
p81
aS'Spices curry powder'
p82
aS'Spices fenugreek seed'
p83
aS'Spices ginger ground'
p84
aS'Spices mace ground'
p85
aS'Spices marjoram dried'
p86
aS'Spices nutmeg ground'
p87
aS'Spices onion powder'
p88
aS'Spices oregano dried'
p89
aS'Spices paprika'
p90
aS'Spices parsley dried'
p91
aS'Spices pepper black'
p92
aS'Spices pepper red or cayenne'
p93
aS'Spices pepper white'
p94
aS'Spices poultry seasoning'
p95
aS'Spices rosemary dried'
p96
aS'Spices saffron'
p97
aS'Spices sage ground'
p98
aS'Spices savory ground'
p99
aS'Spices tarragon dried'
p100
aS'Spices thyme dried'
p101
aS'Spices turmeric ground'
p102
aS'Basil fresh'
p103
aS'Dill weed fresh'
p104
aS'Mustard prepared yellow'
p105
aS'Salt table'
p106
aS'Vinegar cider'
p107
aS'Thyme fresh'
p108
aS'Vanilla extract'
p109
aS'Capers canned'
p110
aS'Horseradish prepared'
p111
aS'Rosemary fresh'
p112
aS'Peppermint fresh'
p113
aS'Spearmint fresh'
p114
aS'Vinegar balsamic'
p115
aS'PACE Dry Taco Seasoning Mix'
p116
aS'Seasoning mix dry sazon coriander & annatto'
p117
aS'Seasoning mix dry taco original'
p118
aS'Seasoning mix dry chili original'
p119
aS'Lard'
p120
aS'Salad dressing italian dressing commercial reduced fat'
p121
aS'Salad dressing mayonnaise regular'
p122
aS'Shortening household soybean (partially hydrogenated)cottonseed (partially hydrogenated)'
p123
aS'Oil soybean salad or cooking (partially hydrogenated)'
p124
aS'Oil peanut salad or cooking'
p125
aS'Oil coconut'
p126
aS'Oil olive salad or cooking'
p127
aS'Oil sesame salad or cooking'
p128
aS'Oil sunflower linoleic (less than 60)'
p129
aS'Margarine regular hard soybean (hydrogenated)'
p130
aS'Margarinelike vegetable oil spread unspecified oils approximately 37 fat with salt'
p131
aS'Oil cottonseed salad or cooking'
p132
aS'Vegetable oil palm kernel'
p133
aS'Oil tomatoseed'
p134
aS'Oil corn industrial and retail all purpose salad or cooking'
p135
aS'Oil walnut'
p136
aS'Oil almond'
p137
aS'Oil apricot kernel'
p138
aS'Oil soybean lecithin'
p139
aS'Fat chicken'
p140
aS'Shortening household lard and vegetable oil'
p141
aS'Shortening bread soybean (hydrogenated) and cottonseed'
p142
aS'Oil nutmeg butter'
p143
aS'Oil avocado'
p144
aS'Oil canola'
p145
aS'Shortening special purpose for baking soybean (hydrogenated) palm and cottonseed'
p146
aS'Meat drippings (lard beef tallow mutton tallow)'
p147
aS'Salad dressing ranch dressing fatfree'
p148
aS'Oil industrial canola with antifoaming agent principal uses salads woks and light frying'
p149
aS'Oil industrial canola for salads woks and light frying'
p150
aS'Oil industrial canola (partially hydrogenated) oil for deep fat frying'
p151
aS'Oil industrial coconut principal uses candy coatings oil sprays roasting nuts'
p152
aS'Oil industrial soy (partially hydrogenated) principal uses popcorn and flavoring vegetables'
p153
aS'Oil industrial coconut confection fat typical basis for ice cream coatings'
p154
aS'Shortening industrial soy (partially hydrogenated ) and corn for frying'
p155
aS'Oil vegetable Natreon canola high stability non trans high oleic (70)'
p156
aS'Oil PAM cooking spray original'
p157
aS'Oil cooking and salad ENOVA 80 diglycerides'
p158
aS'Salad dressing honey mustard dressing reduced calorie'
p159
aS'Margarinelike vegetable oil spread approximately 37 fat unspecified oils with salt with added vitamin D'
p160
aS'Margarine regular 80 fat composite stick with salt with added vitamin D'
p161
aS'Dressing honey mustard fatfree'
p162
aS'Mayonnaise reduced fat with olive oil'
p163
aS'Chicken broiler rotisserie BBQ breast meat only'
p164
aS'Chicken broilers or fryers meat and skin and giblets and neck raw'
p165
aS'Chicken broilers or fryers meat and skin and giblets and neck cooked fried flour'
p166
aS'Chicken broilers or fryers meat and skin raw'
p167
aS'Chicken broilers or fryers breast meat and skin raw'
p168
aS'Chicken broiler or fryers breast skinless boneless meat only raw'
p169
aS'Chicken broilers or fryers drumstick meat and skin raw'
p170
aS'Chicken broilers or fryers dark meat drumstick meat only raw'
p171
aS'Chicken broilers or fryers leg meat and skin raw'
p172
aS'Turkey whole meat and skin raw'
p173
aS'Turkey whole giblets raw'
p174
aS'Turkey liver all classes raw'
p175
aS'Chicken canned meat only with broth'
p176
aS'Pate de foie gras canned (goose liver pate) smoked'
p177
aS'Poultry mechanically deboned from backs and necks with skin raw'
p178
aS'Chicken cornish game hens meat and skin raw'
p179
aS'Duck young duckling domesticated White Pekin breast meat and skin boneless cooked roasted'
p180
aS'Duck young duckling domesticated White Pekin breast meat only boneless cooked without skin broiled'
p181
aS'Chicken ground raw'
p182
aS'Chicken broilers or fryers back meat only cooked rotisserie original seasoning'
p183
aS'USDA Commodity chicken fajita strips frozen'
p184
aS'USDA Commodity turkey ham dark meat smoked frozen'
p185
aS'Ground Turkey fat free raw'
p186
aS'Ground turkey 93 lean 7 fat raw'
p187
aS'Chicken skin (drumsticks and thighs) cooked braised'
p188
aS'Chicken dark meat drumstick meat only enhanced raw'
p189
aS'Soup cream of asparagus canned condensed'
p190
aS'Soup black bean canned condensed'
p191
aS'Soup bean with pork canned condensed'
p192
aS'Soup beef broth or bouillon canned readytoserve'
p193
aS'Soup cream of celery canned condensed'
p194
aS'Soup cheese canned condensed'
p195
aS'Soup chicken with dumplings canned condensed'
p196
aS'Soup chicken canned chunky readytoserve'
p197
aS'Soup chicken rice canned chunky readytoserve'
p198
aS'Soup chili beef canned condensed'
p199
aS'Soup crab canned readytoserve'
p200
aS'Soup mushroom barley canned condensed'
p201
aS'Soup mushroom with beef stock canned condensed'
p202
aS'Soup oyster stew canned condensed'
p203
aS'Soup pea green canned condensed'
p204
aS'Soup cream of potato canned condensed'
p205
aS'Soup cream of shrimp canned condensed'
p206
aS'Soup tomato beef with noodle canned condensed'
p207
aS'Soup vegetable with beef broth canned condensed'
p208
aS'Soup beef noodle dry mix'
p209
aS'Soup chicken broth cubes dry'
p210
aS'Soup onion dry mix'
p211
aS'Sauce teriyaki readytoserve'
p212
aS'Gravy beef canned readytoserve'
p213
aS'Gravy chicken dry'
p214
aS'Sauce mole poblano dry mix single brand'
p215
aS'Sauce sofrito prepared from recipe'
p216
aS'Sauce barbecue'
p217
aS'Sauce plum readytoserve'
p218
aS'Sauce salsa readytoserve'
p219
aS'Sauce homemade white thin'
p220
aS'Sauce homemade white medium'
p221
aS'Sauce homemade white thick'
p222
aS'Sauce readytoserve pepper or hot'
p223
aS'Sauce readytoserve pepper TABASCO'
p224
aS'Soup stock beef homeprepared'
p225
aS'Soup stock chicken homeprepared'
p226
aS'Soup stock fish homeprepared'
p227
aS'Sauce hoisin readytoserve'
p228
aS'Sauce oyster readytoserve'
p229
aS'Sauce fish readytoserve'
p230
aS'Soup cream of celery canned prepared with equal volume milk'
p231
aS'CAMPBELL`S Red and White 25 Less Sodium Tomato Soup condensed'
p232
aS'PREGO Pasta Chunky Garden Mushroom and Green Pepper Italian Sauce readytoserve'
p233
aS'PREGO Pasta Diced Onion and Garlic Italian Sauce readytoserve'
p234
aS'PREGO Pasta Flavored with Meat Italian Sauce readytoserve'
p235
aS'PREGO Pasta Tomato Basil and Garlic Italian Sauce readytoserve'
p236
aS'PREGO Pasta Zesty Mushroom Italian Sauce readytoserve'
p237
aS'Sauce sweet and sour preparedfromrecipe'
p238
aS'CAMPBELL`S Cream of Chicken with Herbs Soup condensed'
p239
aS'CAMPBELL`S Red and White Cream of Onion Soup condensed'
p240
aS'CAMPBELL`S Red and White Green Pea Soup condensed'
p241
aS'Soup chili beef canned prepared with equal volume water'
p242
aS'Soup consomme with gelatin dry mix prepared with water'
p243
aS'Soup tomato dry mix prepared with water'
p244
aS'Soup vegetable beef dry mix prepared with water'
p245
aS'CAMPBELL`S SELECT Gold Label Soups Creamy Portobello Mushroom Soup'
p246
aS'CAMPBELL`S SELECT Microwaveable Bowls ItalianStyle Wedding Soup'
p247
aS'Soup tomato canned prepared with equal volume water commercial'
p248
aS'Soup ramen noodle any flavor dry'
p249
aS'PACE Chipotle Chunky Salsa'
p250
aS'PACE Cilantro Chunky Salsa'
p251
aS'PACE Lime & Garlic Chunky Salsa'
p252
aS'PACE Thick & Chunky Salsa'
p253
aS'Sauce peanut made from coconut water sugar peanuts'
p254
aS'Soup bean with bacon condensed single brand'
p255
aS'Soup chicken vegetable chunky reduced fat reduced sodium readytoserve single brand'
p256
aS'Sauce pasta spaghetti/marinara readytoserve'
p257
aS'Sauce peppers hot chili mature red canned'
p258
aS'Sauce chili peppers hot immature green canned'
p259
aS'Sauce worcestershire'
p260
aS'Sauce tomato chili sauce bottled with salt'
p261
aS'Soup vegetable chicken canned prepared with water low sodium'
p262
aS'Adobo fresco'
p263
aS'Soup bouillon cubes and granules low sodium dry'
p264
aS'PREGO Pasta Chunky Garden Tomato Onion and Garlic Italian Sauce readytoserve'
p265
aS'Beerwurst beer salami pork and beef'
p266
aS'Sausage Berliner pork beef'
p267
aS'Bologna turkey'
p268
aS'Bratwurst pork cooked'
p269
aS'Braunschweiger (a liver sausage) pork'
p270
aS'Chorizo pork and beef'
p271
aS'Ham chopped canned'
p272
aS'Kielbasa kolbassy pork beef nonfat dry milk added'
p273
aS'Luncheon meat beef thin sliced'
p274
aS'Turkey breast low salt prepackaged or deli luncheon meat'
p275
aS'Pepperoni pork beef'
p276
aS'Polish sausage pork'
p277
aS'Sausage Vienna canned chicken beef pork'
p278
aS'Honey roll sausage beef'
p279
aS'OSCAR MAYER Wieners (pork turkey)'
p280
aS'OSCAR MAYER Wieners (cheese hot dogs with turkey)'
p281
aS'LOUIS RICH Chicken (white oven roasted)'
p282
aS'Turkey pork and beef sausage low fat smoked'
p283
aS'USDA Commodity pork sausage bulk/links/patties frozen cooked'
p284
aS'Luncheon meat pork ham and chicken minced canned reduced sodium added ascorbic acid includes SPAM 25 less sodium'
p285
aS'Salami pork beef less sodium'
p286
aS'Sausage Italian sweet links'
p287
aS'Sausage Polish beef with chicken hot'
p288
aS'Sausage turkey breakfast links mild'
p289
aS'Chicken breast fatfree mesquite flavor sliced'
p290
aS'Scrapple pork'
p291
aS'Beef sausage fresh cooked'
p292
aS'Milk and cereal bar'
p293
aS'Acerola (west indian cherry) raw'
p294
aS'Acerola juice raw'
p295
aS'Apples raw with skin'
p296
aS'Apple juice canned or bottled unsweetened without added ascorbic acid'
p297
aS'Apple juice frozen concentrate unsweetened diluted with 3 volume water without added ascorbic acid'
p298
aS'Applesauce canned unsweetened without added ascorbic acid (includes USDA commodity)'
p299
aS'Apricots raw'
p300
aS'Apricots canned water pack with skin solids and liquids'
p301
aS'Apricots canned extra light syrup pack with skin solids and liquids'
p302
aS'Apricot nectar canned without added ascorbic acid'
p303
aS'Avocados raw all commercial varieties'
p304
aS'Bananas raw'
p305
aS'Bananas dehydrated or banana powder'
p306
aS'Blackberries raw'
p307
aS'Blackberry juice canned'
p308
aS'Cherries tart dried sweetened'
p309
aS'Blackberries canned heavy syrup solids and liquids'
p310
aS'Blackberries frozen unsweetened'
p311
aS'Blueberries raw'
p312
aS'Blueberries wild frozen'
p313
aS'Cherries sour red raw'
p314
aS'Cherries sweet canned juice pack solids and liquids'
p315
aS'Cranberries raw'
p316
aS'Currants european black raw'
p317
aS'Custardapple (bullock`sheart) raw'
p318
aS'Dates deglet noor'
p319
aS'Elderberries raw'
p320
aS'Figs raw'
p321
aS'Fruit cocktail (peach and pineapple and pear and grape and cherry) canned water pack solids and liquids'
p322
aS'Fruit salad (peach and pear and apricot and pineapple and cherry) canned light syrup solids and liquids'
p323
aS'Grapefruit raw pink and red and white all areas'
p324
aS'Grapefruit sections canned juice pack solids and liquids'
p325
aS'Grapefruit sections canned light syrup pack solids and liquids'
p326
aS'Grapefruit juice white canned unsweetened'
p327
aS'Grapes muscadine raw'
p328
aS'Grapes red or green (European type such as Thompson seedless) raw'
p329
aS'Jackfruit raw'
p330
aS'Javaplum (jambolan) raw'
p331
aS'Kiwifruit green raw'
p332
aS'Lemons raw without peel'
p333
aS'Lemon juice raw'
p334
aS'Lemon peel raw'
p335
aS'Limes raw'
p336
aS'Lime juice raw'
p337
aS'Longans raw'
p338
aS'Mangos raw'
p339
aS'Melons cantaloupe raw'
p340
aS'Melons honeydew raw'
p341
aS'Mulberries raw'
p342
aS'Nectarines raw'
p343
aS'Olives ripe canned (smallextra large)'
p344
aS'Olives pickled canned or bottled green'
p345
aS'Oranges raw all commercial varieties'
p346
aS'Oranges raw navels'
p347
aS'Oranges raw with peel'
p348
aS'Orange juice raw'
p349
aS'Orange juice chilled includes from concentrate'
p350
aS'Orange juice chilled includes from concentrate fortified with calcium and vitamin D'
p351
aS'Orange juice frozen concentrate unsweetened undiluted'
p352
aS'Tangerines (mandarin oranges) raw'
p353
aS'Papayas raw'
p354
aS'Papaya canned heavy syrup drained'
p355
aS'Peaches raw'
p356
aS'Peaches frozen sliced sweetened'
p357
aS'Pears raw'
p358
aS'Pineapple raw all varieties'
p359
aS'Pineapple canned juice pack solids and liquids'
p360
aS'Pineapple frozen chunks sweetened'
p361
aS'Pitanga (surinamcherry) raw'
p362
aS'Plantains raw'
p363
aS'Plums raw'
p364
aS'Pomegranates raw'
p365
aS'Prunes canned heavy syrup pack solids and liquids'
p366
aS'Quinces raw'
p367
aS'Raisins golden seedless'
p368
aS'Raspberries raw'
p369
aS'Raspberries frozen red sweetened'
p370
aS'Rhubarb raw'
p371
aS'Strawberries raw'
p372
aS'Strawberries frozen unsweetened'
p373
aS'Strawberries frozen sweetened whole'
p374
aS'Sugarapples (sweetsop) raw'
p375
aS'Tamarinds raw'
p376
aS'Watermelon raw'
p377
aS'Maraschino cherries canned drained'
p378
aS'Pears asian raw'
p379
aS'Apple juice frozen concentrate unsweetened diluted with 3 volume water with added ascorbic acid'
p380
aS'Pears raw bosc'
p381
aS'Dates medjool'
p382
aS'Durian raw or frozen'
p383
aS'Prune puree'
p384
aS'Mango nectar canned'
p385
aS'Pomegranate juice bottled'
p386
aS'Juice apple grape and pear blend with added ascorbic acid and calcium'
p387
aS'Plantains green fried'
p388
aS'Apples raw golden delicious with skin'
p389
aS'Apples raw granny smith with skin'
p390
aS'Pork fresh enhanced composite of separable fat cooked'
p391
aS'Pork fresh composite of trimmed retail cuts (leg loin shoulder) separable lean only raw'
p392
aS'Pork fresh composite of trimmed leg loin shoulder and spareribs (includes cuts to be cured) separable lean and fat raw'
p393
aS'Pork fresh belly raw'
p394
aS'Pork fresh loin whole separable lean and fat cooked roasted'
p395
aS'Pork fresh loin blade (chops or roasts) bonein separable lean and fat raw'
p396
aS'Pork fresh loin tenderloin separable lean only raw'
p397
aS'Pork fresh loin top loin (chops) boneless separable lean and fat raw'
p398
aS'Pork fresh loin top loin (roasts) boneless separable lean and fat cooked roasted'
p399
aS'Pork fresh shoulder whole separable lean and fat cooked roasted'
p400
aS'Pork fresh shoulder (Boston butt) blade (steaks) separable lean and fat raw'
p401
aS'Pork fresh shoulder blade boston (steaks) separable lean and fat cooked broiled'
p402
aS'Pork fresh shoulder blade boston (roasts) separable lean and fat cooked roasted'
p403
aS'Pork fresh variety meats and byproducts liver raw'
p404
aS'Pork fresh variety meats and byproducts pancreas raw'
p405
aS'Pork cured breakfast strips raw or unheated'
p406
aS'Canadian bacon unprepared'
p407
aS'Pork cured ham boneless regular (approximately 11 fat) roasted'
p408
aS'Pork cured ham regular (approximately 13 fat) canned roasted'
p409
aS'Pork cured ham steak boneless extra lean unheated'
p410
aS'Pork fresh loin countrystyle ribs separable lean and fat raw'
p411
aS'Pork fresh ground raw'
p412
aS'Pork cured ham  water added rump bonein separable lean only heated roasted'
p413
aS'Pork cured ham  water added shank bonein separable lean only heated roasted'
p414
aS'Pork Shoulder breast boneless separable lean and fat raw'
p415
aS'Pork Leg sirloin tip roast boneless separable lean and fat cooked braised'
p416
aS'Pork ground 84 lean / 16 fat raw'
p417
aS'Pork ground 96 lean / 4 fat raw'
p418
aS'Bacon presliced reduced/low sodium unprepared'
p419
aS'Alfalfa seeds sprouted raw'
p420
aS'Artichokes (globe or french) raw'
p421
aS'Artichokes (globe or french) frozen unprepared'
p422
aS'Asparagus raw'
p423
aS'Asparagus canned regular pack solids and liquids'
p424
aS'Asparagus frozen unprepared'
p425
aS'Balsampear (bitter gourd) leafy tips raw'
p426
aS'Bamboo shoots raw'
p427
aS'Beans kidney mature seeds sprouted raw'
p428
aS'Beans kidney mature seeds sprouted cooked boiled drained without salt'
p429
aS'Lima beans immature seeds raw'
p430
aS'Lima beans immature seeds frozen fordhook unprepared'
p431
aS'Lima beans immature seeds frozen fordhook cooked boiled drained without salt'
p432
aS'Lima beans immature seeds frozen baby unprepared'
p433
aS'Beans navy mature seeds sprouted raw'
p434
aS'Beans navy mature seeds sprouted cooked boiled drained without salt'
p435
aS'Beans pinto immature seeds frozen unprepared'
p436
aS'Beans pinto immature seeds frozen cooked boiled drained without salt'
p437
aS'Beans snap green raw'
p438
aS'Beans snap green cooked boiled drained without salt'
p439
aS'Beans snap green frozen all styles unprepared'
p440
aS'Beets raw'
p441
aS'Beet greens raw'
p442
aS'Broccoli raw'
p443
aS'Broccoli frozen chopped unprepared'
p444
aS'Brussels sprouts raw'
p445
aS'Burdock root raw'
p446
aS'Cabbage raw'
p447
aS'Cabbage savoy raw'
p448
aS'Cabbage chinese (pakchoi) raw'
p449
aS'Carrots raw'
p450
aS'Carrots frozen unprepared'
p451
aS'Cassava raw'
p452
aS'Cauliflower raw'
p453
aS'Cauliflower cooked boiled drained without salt'
p454
aS'Celeriac raw'
p455
aS'Celery raw'
p456
aS'Celery cooked boiled drained without salt'
p457
aS'Chard swiss raw'
p458
aS'Chives raw'
p459
aS'Coriander (cilantro) leaves raw'
p460
aS'Corn sweet yellow raw'
p461
aS'Corn sweet yellow canned whole kernel drained solids'
p462
aS'Corn sweet yellow canned cream style regular pack'
p463
aS'Corn sweet yellow frozen kernels cut off cob unprepared'
p464
aS'Cowpeas (blackeyes) immature seeds raw'
p465
aS'Cowpeas young pods with seeds raw'
p466
aS'Cucumber with peel raw'
p467
aS'Eggplant raw'
p468
aS'Edamame frozen unprepared'
p469
aS'Garlic raw'
p470
aS'Ginger root raw'
p471
aS'Gourd whiteflowered (calabash) raw'
p472
aS'Drumstick leaves raw'
p473
aS'Jew`s ear (pepeao) raw'
p474
aS'Kale raw'
p475
aS'Mushrooms shiitake raw'
p476
aS'Kohlrabi raw'
p477
aS'Leeks (bulb and lower leafportion) raw'
p478
aS'Lentils sprouted raw'
p479
aS'Lettuce butterhead (includes boston and bibb types) raw'
p480
aS'Lettuce cos or romaine raw'
p481
aS'Lettuce iceberg (includes crisphead types) raw'
p482
aS'Lettuce green leaf raw'
p483
aS'Mushrooms white raw'
p484
aS'Mushrooms white cooked boiled drained without salt'
p485
aS'Mustard spinach (tendergreen) raw'
p486
aS'Okra raw'
p487
aS'Onions raw'
p488
aS'Onions dehydrated flakes'
p489
aS'Onions yellow sauteed'
p490
aS'Onions frozen whole unprepared'
p491
aS'Onions spring or scallions (includes tops and bulb) raw'
p492
aS'Onions young green tops only'
p493
aS'Onions sweet raw'
p494
aS'Onion rings breaded par fried frozen unprepared'
p495
aS'Parsley fresh'
p496
aS'Parsnips raw'
p497
aS'Peas ediblepodded raw'
p498
aS'Peas ediblepodded frozen unprepared'
p499
aS'Peas green raw'
p500
aS'Peas green canned regular pack solids and liquids'
p501
aS'Peas green (includes baby and lesuer types) canned drained solids unprepared'
p502
aS'Peas green frozen unprepared'
p503
aS'Peppers hot chili green canned pods excluding seeds solids and liquids'
p504
aS'Pigeonpeas immature seeds raw'
p505
aS'Pigeonpeas immature seeds cooked boiled drained without salt'
p506
aS'Potato flesh and skin raw'
p507
aS'Potatoes russet flesh and skin raw'
p508
aS'Potatoes white flesh and skin raw'
p509
aS'Potatoes french fried crinkle or regular cut salt added in processing frozen as purchased'
p510
aS'Potatoes mashed homeprepared whole milk and margarine added'
p511
aS'Potatoes mashed dehydrated flakes without milk dry form'
p512
aS'Potatoes hash brown frozen plain unprepared'
p513
aS'Potatoes hash brown frozen with butter sauce unprepared'
p514
aS'USDA Commodity Potato wedges frozen'
p515
aS'Potatoes french fried steak fries salt added in processing frozen as purchased'
p516
aS'Pumpkin raw'
p517
aS'Purslane raw'
p518
aS'Radishes raw'
p519
aS'Sauerkraut canned solids and liquids'
p520
aS'Seaweed agar raw'
p521
aS'Seaweed irishmoss raw'
p522
aS'Seaweed kelp raw'
p523
aS'Soybeans green raw'
p524
aS'Spinach raw'
p525
aS'Spinach cooked boiled drained without salt'
p526
aS'Spinach frozen chopped or leaf unprepared'
p527
aS'Squash summer crookneck and straightneck raw'
p528
aS'Squash summer crookneck and straightneck cooked boiled drained without salt'
p529
aS'Squash summer zucchini includes skin raw'
p530
aS'Squash winter acorn raw'
p531
aS'Squash winter butternut raw'
p532
aS'Squash winter spaghetti raw'
p533
aS'Succotash (corn and limas) canned with whole kernel corn solids and liquids'
p534
aS'Sweet potato leaves raw'
p535
aS'Sweet potato raw unprepared'
p536
aS'Taro raw'
p537
aS'Taro leaves raw'
p538
aS'Tomatoes green raw'
p539
aS'Tomatoes red ripe raw year round average'
p540
aS'Tomatoes red ripe canned packed in tomato juice'
p541
aS'Tomatoes red ripe canned with green chilies'
p542
aS'Tomato juice canned with salt added'
p543
aS'Tomato products canned paste without salt added'
p544
aS'Tomato products canned puree without salt added'
p545
aS'Tomato powder'
p546
aS'Tomato products canned sauce with onions green peppers and celery'
p547
aS'Turnips raw'
p548
aS'Turnip greens frozen cooked boiled drained without salt'
p549
aS'Vegetables mixed canned solids and liquids'
p550
aS'Vegetables mixed frozen unprepared'
p551
aS'Watercress raw'
p552
aS'Yam raw'
p553
aS'Yambean (jicama) raw'
p554
aS'Peppers jalapeno canned solids and liquids'
p555
aS'Shallots freezedried'
p556
aS'Tomato products canned sauce spanish style'
p557
aS'Seaweed wakame raw'
p558
aS'Carrot dehydrated'
p559
aS'Tomatoes yellow raw'
p560
aS'Arrowroot raw'
p561
aS'Broccoli stalks raw'
p562
aS'Cabbage common (danish domestic and pointed types) freshly harvest raw'
p563
aS'Peas green canned no salt added solids and liquids'
p564
aS'Taro leaves cooked steamed with salt'
p565
aS'Corn sweet white raw'
p566
aS'Pickles cucumber dill or kosher dill'
p567
aS'Pickles cucumber sweet (includes bread and butter pickles)'
p568
aS'Pimento canned'
p569
aS'Pickle relish hot dog'
p570
aS'Pickle relish sweet'
p571
aS'Peppers sweet yellow raw'
p572
aS'Radicchio raw'
p573
aS'Squash zucchini baby raw'
p574
aS'Tomatillos raw'
p575
aS'Tomatoes sundried'
p576
aS'Tomatoes sundried packed in oil drained'
p577
aS'Fennel bulb raw'
p578
aS'Arugula raw'
p579
aS'Carrots baby raw'
p580
aS'Hearts of palm canned'
p581
aS'Peppers hot chile sundried'
p582
aS'Nopales raw'
p583
aS'Cabbage napa cooked'
p584
aS'Lemon grass (citronella) raw'
p585
aS'Beans fava in pod raw'
p586
aS'Grape leaves raw'
p587
aS'Pepper banana raw'
p588
aS'Peppers serrano raw'
p589
aS'Peppers ancho dried'
p590
aS'Pickles chowchow with cauliflower onion mustard sweet'
p591
aS'Mushrooms straw canned drained solids'
p592
aS'Wasabi root raw'
p593
aS'Seeds breadfruit seeds raw'
p594
aS'Seeds cottonseed meal partially defatted (glandless)'
p595
aS'Seeds sesame seeds whole dried'
p596
aS'Seeds sunflower seed kernels dried'
p597
aS'Nuts acorns raw'
p598
aS'Nuts almonds'
p599
aS'Nuts brazilnuts dried unblanched'
p600
aS'Nuts cashew nuts dry roasted without salt added'
p601
aS'Nuts coconut milk raw (liquid expressed from grated meat and water)'
p602
aS'Nuts macadamia nuts raw'
p603
aS'Nuts mixed nuts dry roasted with peanuts without salt added'
p604
aS'Nuts pecans'
p605
aS'Nuts pine nuts dried'
p606
aS'Nuts pistachio nuts raw'
p607
aS'Nuts walnuts black dried'
p608
aS'Seeds sesame butter tahini from roasted and toasted kernels (most common type)'
p609
aS'Seeds sesame butter tahini from unroasted kernels (nonchemically removed seed coat)'
p610
aS'Beef grassfed strip steaks lean only raw'
p611
aS'Beef retail cuts separable fat raw'
p612
aS'Beef brisket whole separable lean only all grades raw'
p613
aS'Beef grassfed ground raw'
p614
aS'Beef flank steak separable lean and fat trimmed to 0" fat choice raw'
p615
aS'Beef rib shortribs separable lean and fat choice raw'
p616
aS'Beef chuck under blade pot roast boneless separable lean only trimmed to 0" fat all grades cooked braised'
p617
aS'Beef ground patties frozen cooked broiled'
p618
aS'Beef variety meats and byproducts heart raw'
p619
aS'Beef variety meats and byproducts tongue raw'
p620
aS'Beef sandwich steaks flaked chopped formed and thinly sliced raw'
p621
aS'Beef cured breakfast strips raw or unheated'
p622
aS'Beef chuck under blade center steak boneless Denver Cut separable lean only trimmed to 0" fat all grades cooked grilled'
p623
aS'Beef rib large end (ribs 69) separable lean and fat trimmed to 0" fat choice cooked roasted'
p624
aS'Beef round eye of round roast boneless separable lean and fat trimmed to 0" fat all grades cooked roasted'
p625
aS'Beef loin tenderloin steak boneless separable lean and fat trimmed to 0" fat all grades cooked grilled'
p626
aS'Beef top sirloin steak separable lean and fat trimmed to 0" fat all grades cooked broiled'
p627
aS'Beef ground 70 lean meat / 30 fat crumbles cooked panbrowned'
p628
aS'Beef rib whole (ribs 612) separable lean and fat trimmed to 1/8" fat all grades raw'
p629
aS'Beef round tip round separable lean and fat trimmed to 1/8" fat all grades raw'
p630
aS'Beef plate inside skirt steak separable lean only trimmed to 0" fat all grades cooked broiled'
p631
aS'Beverages coconut water unsweetened from concentrate natural and fruit flavors vitamin C added readytodrink'
p632
aS'Alcoholic beverage beer light BUDWEISER SELECT'
p633
aS'Alcoholic beverage tequila sunrise canned'
p634
aS'Whiskey sour mix powder'
p635
aS'Beverages energy drink Original grape loaded cherry charged citrus'
p636
aS'Alcoholic beverage distilled all (gin rum vodka whiskey) 80 proof'
p637
aS'Alcoholic beverage distilled vodka 80 proof'
p638
aS'Alcoholic beverage wine dessert sweet'
p639
aS'V8 SPLASH Smoothies Peach Mango'
p640
aS'Alcoholic beverage wine table white'
p641
aS'Alcoholic beverage wine table white Pinot Gris (Grigio)'
p642
aS'Carbonated beverage club soda'
p643
aS'Alcoholic beverage wine table white Riesling'
p644
aS'Alcoholic beverage wine table white Sauvignon Blanc'
p645
aS'Tea readytodrink NESTLE COOL NESTEA ice tea lemon flavor'
p646
aS'Alcoholic beverage wine table white Muscat'
p647
aS'Carbonated beverage lemonlime soda no caffeine'
p648
aS'Carbonated beverage reduced sugar cola contains caffeine and sweeteners'
p649
aS'Alcoholic Beverage wine table red Burgundy'
p650
aS'Energy drink RED BULL with added caffeine niacin pantothenic acid vitamins B6 and B12'
p651
aS'Carobflavor beverage mix powder'
p652
aS'Chocolateflavor beverage mix for milk powder without added nutrients'
p653
aS'Clam and tomato juice canned'
p654
aS'Coffee brewed from grounds prepared with tap water decaffeinated'
p655
aS'Coffee instant regular powder half the caffeine'
p656
aS'Lemonade powder'
p657
aS'Lemonade frozen concentrate white'
p658
aS'Limeade frozen concentrate prepared with water'
p659
aS'Malted drink mix natural with added nutrients powder'
p660
aS'Tea black brewed prepared with tap water decaffeinated'
p661
aS'Tea instant unsweetened powder decaffeinated'
p662
aS'Tea instant sweetened with sugar lemonflavored without added ascorbic acid powder  decaffeinated'
p663
aS'Tea instant sweetened with sodium saccharin lemonflavored powder'
p664
aS'Water bottled PERRIER'
p665
aS'Water tap drinking'
p666
aS'Alcoholic beverage liqueur coffee 53 proof'
p667
aS'Alcoholic beverage liqueur coffee with cream 34 proof'
p668
aS'Dairy drink mix chocolate reduced calorie with lowcalorie sweeteners powder'
p669
aS'Dairy drink mix chocolate reduced calorie with aspartame powder prepared with water and ice'
p670
aS'Cranberry juice cocktail frozen concentrate'
p671
aS'Water bottled noncarbonated DASANI'
p672
aS'Drink mix QUAKER OATS GATORADE orange flavor powder'
p673
aS'Beverages COCACOLA POWERADE lemonlime flavored readytodrink'
p674
aS'Alcoholic beverage wine dessert dry'
p675
aS'Wine nonalcoholic'
p676
aS'Chocolateflavor beverage mix for milk powder with added nutrients prepared with whole milk'
p677
aS'Beverages vegetable and fruit juice blend 100 juice with added vitamins A C E'
p678
aS'Beverages fruit juice drink reduced sugar with vitamin E added'
p679
aS'Hibiscus tea'
p680
aS'Fish anchovy european raw'
p681
aS'Fish bass fresh water mixed species raw'
p682
aS'Fish carp raw'
p683
aS'Fish cod Atlantic raw'
p684
aS'Fish halibut Atlantic and Pacific raw'
p685
aS'Fish pike northern raw'
p686
aS'Fish rockfish Pacific mixed species raw'
p687
aS'Fish roughy orange raw'
p688
aS'Fish salmon Atlantic wild raw'
p689
aS'Fish sea bass mixed species raw'
p690
aS'Fish snapper mixed species raw'
p691
aS'Fish sucker white raw'
p692
aS'Fish swordfish raw'
p693
aS'Fish tuna fresh bluefin raw'
p694
aS'Fish tuna light canned in water drained solids'
p695
aS'Crustaceans crab alaska king raw'
p696
aS'Crustaceans crab alaska king imitation made from surimi'
p697
aS'Crustaceans lobster northern raw'
p698
aS'Crustaceans shrimp mixed species raw'
p699
aS'Crustaceans shrimp mixed species imitation made from surimi'
p700
aS'Mollusks squid mixed species raw'
p701
aS'Mollusks conch baked or broiled'
p702
aS'Salmon sockeye canned total can contents'
p703
aS'Fish tilapia raw'
p704
aS'Fish trout brook raw New York State'
p705
aS'Beans baked canned plain or vegetarian'
p706
aS'Beans baked canned with pork'
p707
aS'Beans black mature seeds raw'
p708
aS'Beans black mature seeds cooked boiled without salt'
p709
aS'Beans french mature seeds raw'
p710
aS'Beans great northern mature seeds raw'
p711
aS'Beans kidney red mature seeds canned solids and liquids'
p712
aS'Beans small white mature seeds raw'
p713
aS'Chickpeas (garbanzo beans bengal gram) mature seeds raw'
p714
aS'Chickpeas (garbanzo beans bengal gram) mature seeds canned solids and liquids'
p715
aS'Cowpeas common (blackeyes crowder southern) mature seeds raw'
p716
aS'Noodles chinese cellophane or long rice (mung beans) dehydrated'
p717
aS'Peanuts all types raw'
p718
aS'Peanuts all types dryroasted with salt'
p719
aS'Peanuts spanish raw'
p720
aS'Peanut butter chunk style with salt'
p721
aS'Peanut butter smooth style with salt'
p722
aS'Soybeans mature seeds dry roasted'
p723
aS'Soy flour fullfat raw'
p724
aS'Soymilk original and vanilla unfortified'
p725
aS'Tofu firm prepared with calcium sulfate and magnesium chloride (nigari)'
p726
aS'Tofu soft prepared with calcium sulfate and magnesium chloride (nigari)'
p727
aS'Yardlong beans mature seeds raw'
p728
aS'Hummus home prepared'
p729
aS'Peanut butter smooth vitamin and mineral fortified'
p730
aS'Peanut butter chunky vitamin and mineral fortified'
p731
aS'Chickpea flour (besan)'
p732
aS'Tofu extra firm prepared with nigari'
p733
aS'MORINU Tofu silken soft'
p734
aS'Soymilk original and vanilla light with added calcium vitamins A and D'
p735
aS'SILK Raspberry soy yogurt'
p736
aS'Soy sauce reduced sodium made from hydrolyzed vegetable protein'
p737
aS'WORTHINGTON Chili canned unprepared'
p738
aS'WORTHINGTON Multigrain Cutlets canned unprepared'
p739
aS'MORNINGSTAR FARMS Meal Starters Chik`n Strips frozen unprepared'
p740
aS'MORNINGSTAR FARMS Meal Starters Veggie Meatballs frozen unprepared'
p741
aS'Lamb domestic composite of trimmed retail cuts separable lean and fat trimmed to 1/4" fat choice raw'
p742
aS'Lamb domestic foreshank separable lean and fat trimmed to 1/4" fat choice raw'
p743
aS'Lamb domestic leg whole (shank and sirloin) separable lean and fat trimmed to 1/4" fat choice raw'
p744
aS'Lamb domestic leg whole (shank and sirloin) separable lean and fat trimmed to 1/4" fat choice cooked roasted'
p745
aS'Lamb domestic shoulder whole (arm and blade) separable lean and fat trimmed to 1/4" fat choice raw'
p746
aS'Lamb domestic cubed for stew or kabob (leg and shoulder) separable lean only trimmed to 1/4" fat raw'
p747
aS'Lamb New Zealand imported frozen composite of trimmed retail cuts separable lean and fat raw'
p748
aS'Game meat beefalo composite of cuts raw'
p749
aS'Game meat buffalo water cooked roasted'
p750
aS'Game meat goat cooked roasted'
p751
aS'Game meat moose raw'
p752
aS'Game meat rabbit domesticated composite of cuts raw'
p753
aS'Lamb variety meats and byproducts brain raw'
p754
aS'Lamb ground raw'
p755
aS'Lamb Australian imported fresh leg sirloin half boneless separable lean and fat trimmed to 1/8" fat raw'
p756
aS'Lamb Australian imported fresh leg sirloin chops boneless separable lean and fat trimmed to 1/8" fat raw'
p757
aS'Game meat bison ribeye separable lean only 1" steak cooked broiled'
p758
aS'Game meat deer tenderloin separable lean only 051 lb roast cooked broiled'
p759
aS'Veal Australian shank fore bonein separable lean only raw'
p760
aS'Lamb Australian ground  85 lean / 15 fat raw'
p761
aS'Bagels cinnamonraisin toasted'
p762
aS'Biscuits plain or buttermilk dry mix'
p763
aS'Bread banana prepared from recipe made with margarine'
p764
aS'Bread french or vienna (includes sourdough)'
p765
aS'Bread pita white enriched'
p766
aS'Bread raisin enriched'
p767
aS'Bread wheat toasted'
p768
aS'Bread white commercially prepared (includes soft bread crumbs)'
p769
aS'Bread white prepared from recipe made with nonfat dry milk'
p770
aS'Bread wholewheat commercially prepared'
p771
aS'Bread crumbs dry grated plain'
p772
aS'Cake angelfood commercially prepared'
p773
aS'Cake boston cream pie commercially prepared'
p774
aS'Cake chocolate dry mix puddingtype'
p775
aS'Cake mix pudding dry german chocolate'
p776
aS'Cake pound commercially prepared butter (includes fresh and frozen)'
p777
aS'Cake snack cakes cremefilled sponge'
p778
aS'Cake yellow dry mix puddingtype'
p779
aS'Cookies brownies dry mix regular'
p780
aS'Cookies fudge caketype (includes trolley cakes)'
p781
aS'Cookies gingersnaps'
p782
aS'Cookies graham crackers plain or honey (includes cinnamon)'
p783
aS'Cookies ladyfingers with lemon juice and rind'
p784
aS'Cookies molasses'
p785
aS'Cookies sugar commercially prepared regular (includes vanilla)'
p786
aS'Puff pastry frozen readytobake baked'
p787
aS'Cookies vanilla wafers lower fat'
p788
aS'Crackers saltines (includes oyster soda soup)'
p789
aS'Crackers wheat regular'
p790
aS'Croissants butter'
p791
aS'Croutons plain'
p792
aS'Doughnuts yeastleavened with creme filling'
p793
aS'Doughnuts yeastleavened glazed enriched (includes honey buns)'
p794
aS'English muffins plain enriched with ca prop (includes sourdough)'
p795
aS'Muffins corn dry mix prepared'
p796
aS'Pie apple commercially prepared enriched flour'
p797
aS'Pie apple prepared from recipe'
p798
aS'Pie coconut cream prepared from mix nobake type'
p799
aS'Pie pecan commercially prepared'
p800
aS'Pie crust cookietype prepared from recipe graham cracker baked'
p801
aS'Phyllo dough'
p802
aS'Rolls dinner plain commercially prepared (includes brownandserve)'
p803
aS'Rolls hamburger or hotdog mixedgrain'
p804
aS'Rolls hard (includes kaiser)'
p805
aS'Sweet rolls cheese'
p806
aS'Sweet rolls cinnamon refrigerated dough with frosting'
p807
aS'Taco shells baked'
p808
aS'Tortillas readytobake or fry flour refrigerated'
p809
aS'Wonton wrappers (includes egg roll wrappers)'
p810
aS'Leavening agents baking powder doubleacting sodium aluminum sulfate'
p811
aS'Leavening agents baking soda'
p812
aS'Leavening agents yeast baker`s active dry'
p813
aS'Taco shells baked without added salt'
p814
aS'Tortillas readytobake or fry corn without added salt'
p815
aS'MISSION FOODS MISSION Flour Tortillas Soft Taco 8 inch'
p816
aS'HEINZ WEIGHT WATCHER Chocolate Eclair frozen'
p817
aS'Bread pan dulce sweet yeast bread'
p818
aS'Crackers snack GOYA CRACKERS'
p819
aS'Cinnamon buns frosted (includes honey buns)'
p820
aS'Bread wheat white wheat'
p821
aS'Bagel wheat'
p822
aS'KELLOGG`S EGGO French Toaster Sticks Cinnamon'
p823
aS'Snacks beef jerky chopped and formed'
p824
aS'Snacks fruit leather pieces'
p825
aS'Snacks pork skins plain'
p826
aS'Snacks pretzels hard plain salted'
p827
aS'Snacks rice cakes brown rice plain'
p828
aS'Snacks tortilla chips plain white corn salted'
p829
aS'Candies TOOTSIE ROLL chocolateflavor roll'
p830
aS'Candies butterscotch'
p831
aS'Candies caramels'
p832
aS'Baking chocolate unsweetened squares'
p833
aS'Desserts flan caramel custard preparedfromrecipe'
p834
aS'Puddings chocolate dry mix instant prepared with 2 milk'
p835
aS'Baking chocolate MARS SNACKFOOD US M&M`s Semisweet Chocolate Mini Baking Bits'
p836
aS'Candies MARS SNACKFOOD US STARBURST Fruit Chews Original fruits'
p837
aS'Cocoa dry powder unsweetened'
p838
aS'Gelatin desserts dry mix'
p839
aS'Gelatins dry powder unsweetened'
p840
aS'Puddings coconut cream dry mix instant prepared with 2 milk'
p841
aS'Puddings tapioca dry mix'
p842
aS'Puddings rice dry mix prepared with 2 milk'
p843
aS'Candies praline preparedfromrecipe'
p844
aS'Frostings chocolate creamy readytoeat'
p845
aS'Frostings vanilla creamy readytoeat'
p846
aS'Jams and preserves'
p847
aS'Jellies'
p848
aS'Molasses'
p849
aS'Candies MARS SNACKFOOD US POP`ABLES SNICKERS Brand Bite Size Candies'
p850
aS'Pie fillings apple canned'
p851
aS'Puddings lemon dry mix instant prepared with whole milk'
p852
aS'Pudding lemon dry mix regular prepared with sugar egg yolk and water'
p853
aS'Syrups corn dark'
p854
aS'Syrups corn light'
p855
aS'Syrups corn highfructose'
p856
aS'Jams and preserves apricot'
p857
aS'Potato chips without salt reduced fat'
p858
aS'Candies REESE`s Fast Break milk chocolate peanut butter soft nougats candy bar'
p859
aS'Chocolate dark 45 59 cacao solids'
p860
aS'Sugar turbinado'
p861
aS'Syrup maple Canadian'
p862
aS'Amaranth uncooked'
p863
aS'Barley pearled raw'
p864
aS'Bulgur dry'
p865
aS'Corn flour masa enriched white'
p866
aS'Cornmeal wholegrain yellow'
p867
aS'Cornstarch'
p868
aS'Couscous dry'
p869
aS'Millet raw'
p870
aS'Oat bran raw'
p871
aS'Quinoa uncooked'
p872
aS'Rice brown longgrain raw'
p873
aS'Oats'
p874
aS'Rice brown mediumgrain raw'
p875
aS'Rice white longgrain regular raw enriched'
p876
aS'Rice white longgrain parboiled enriched dry'
p877
aS'Rice white longgrain precooked or instant enriched dry'
p878
aS'Rice white shortgrain raw'
p879
aS'Rice white glutinous raw'
p880
aS'Rice white steamed Chinese restaurant'
p881
aS'Semolina enriched'
p882
aS'Tapioca pearl dry'
p883
aS'Wheat flour white allpurpose enriched bleached'
p884
aS'Wheat flour white allpurpose selfrising enriched'
p885
aS'Wheat flour white bread enriched'
p886
aS'Wheat flour white cake enriched'
p887
aS'Pasta corn dry'
p888
aS'Pasta freshrefrigerated spinach as purchased'
p889
aS'Macaroni dry enriched'
p890
aS'Noodles egg dry enriched'
p891
aS'Noodles egg spinach dry enriched'
p892
aS'Noodles chinese chow mein'
p893
aS'Noodles japanese soba dry'
p894
aS'Spaghetti dry enriched'
p895
aS'Corn flour wholegrain blue (harina de maiz morado)'
p896
aS'Cornmeal wholegrain white'
p897
aS'Wheat flour white allpurpose enriched calciumfortified'
p898
aS'Spaghetti proteinfortified cooked enriched (n x 625)'
p899
aS'Wheat flour white (industrial) 15 protein bleached enriched'
p900
aS'Fast foods biscuit with egg'
p901
aS'Fast foods biscuit with egg cheese and bacon'
p902
aS'Fast foods english muffin with butter'
p903
aS'Fast foods clams breaded and fried'
p904
aS'Fast foods oysters battered or breaded and fried'
p905
aS'Fast foods salad vegetable tossed without dressing'
p906
aS'Fast foods salad vegetable tossed without dressing with pasta and seafood'
p907
aS'Fast foods salad vegetable tossed without dressing with shrimp'
p908
aS'Fast foods scallops breaded and fried'
p909
aS'Fast foods shrimp breaded and fried'
p910
aS'Fast foods nachos with cheese beans ground beef and tomatoes'
p911
aS'Tostada with guacamole'
p912
aS'Fast foods cheeseburger; triple regular patty; plain'
p913
aS'Fast foods submarine sandwich cold cut on white bread with lettuce and tomato'
p914
aS'Fast foods coleslaw'
p915
aS'SUBWAY cold cut sub on white bread with lettuce and tomato'
p916
aS'Pizza cheese topping regular crust frozen cooked'
p917
aS'Fast foods chicken breaded and fried boneless pieces plain'
p918
aS'LITTLE CAESARS 14" Cheese Pizza Large Deep Dish Crust'
p919
aS'Fast foods miniature cinnamon rolls'
p920
aS'Light Ice Cream soft serve blended with cookie pieces'
p921
aS'KENTUCKY FRIED CHICKEN Crispy Chicken Strips'
p922
aS'Fast foods grilled chicken bacon and tomato club sandwich with cheese lettuce and mayonnaise'
p923
aS'Fast foods crispy chicken bacon and tomato club sandwich with cheese lettuce and mayonnaise'
p924
aS'DIGIORNO Pizza supreme topping rising crust frozen baked'
p925
aS'KASHI Pizza Mushroom Trio & Spinach'
p926
aS'Tortellini pasta with cheese filling freshrefrigerated as purchased'
p927
aS'Lasagna cheese frozen prepared'
p928
aS'Chili no beans canned entree'
p929
aS'Ravioli cheese with tomato sauce frozen not prepared includes regular and light entrees'
p930
aS'KASHI Chicken Enchilada with Ancho Sauce Frozen Entree'
p931
aS'KASHI Lemongrass Coconut Chicken Frozen Entree'
p932
aS'KASHI Pesto Pasta Primavera Frozen Entree'
p933
aS'Beef round knuckle tip side steak separable lean and fat trimmed to 0" fat choice raw'
p934
aS'Beef chuck shoulder clod shoulder top and center steaks separable lean and fat trimmed to 0" fat choice raw'
p935
aS'Beef chuck for stew separable lean and fat all grades cooked braised'
p936
aS'Beef rib eye steak boneless lipon separable lean only trimmed to 1/8" fat all grades cooked grilled'
p937
aS'Beef rib eye roast bonein lipon separable lean only trimmed to 1/8" fat choice cooked roasted'
p938
aS'Beef ground unspecified fat content cooked'
p939
aS'Beef loin top sirloin petite roast boneless separable lean only trimmed to 0" fat choice cooked roasted'
p940
aS'Beef chuck clod steak separable lean only trimmed to 1/4" fat all grades cooked braised'
p941
aS'Beef ground 90 lean meat / 10 fat raw'
p942
aS'Snacks candy rolls yogurtcovered fruit flavored with high vitamin C'
p943
aS'Snacks popcorn microwave regular (butter) flavor made with partially hydrogenated oil'
p944
aS'Popcorn microwave regular (butter) flavor made with palm oil'
p945
aS'Tortilla chips yellow plain salted'
p946
aS'Snacks yucca (cassava) chips salted'
p947
aS'Snack Mixed Berry Bar'
p948
aS'Soup wonton Chinese restaurant'
p949
aS'PACE Salsa Verde'
p950
aS'PACE Tequila Lime Salsa'
p951
aS'Sauce duck readytoserve'
p952
aS'Sauce steak tomato based'
p953
aS'Sauce cocktail readytoserve'
p954
aS'Dip salsa con queso cheese and salsa medium'
p955
aS'MURRAY SOUTHERN KITCHEN Chocolate Chip Cookies'
p956
aS'Crackers multigrain'
p957
aS'Cookie butter or sugar with chocolate icing or filling'
p958
aS'PACE Diced Green Chilies'
p959
aS'Sweet Potatoes french fried frozen unprepared'
p960
aS'Sweet Potatoes french fried crosscut frozen unprepared'
p961
aS'Potatoes yellow fleshed roasted salt added in processing frozen unprepared'
p962
aS'Pizza rolls frozen unprepared'
p963
aS'Fish blackfish whole (Alaska Native)'
p964
aS'Cranberry low bush or lingenberry raw (Alaska Native)'
p965
aS'Fish herring eggs Pacific dry (Alaska Native)'
p966
aS'Huckleberries raw (Alaska Native)'
p967
aS'Octopus (Alaska Native)'
p968
aS'Walrus liver raw (Alaska Native)'
p969
aS'Fish whitefish broad head eyes cheeks and soft bones (Alaska Native)'
p970
aS'Willow young leaves chopped (Alaska Native)'
p971
aS'Tortilla includes plain and from mutton sandwich (Navajo)'
p972
aS'Fish salmon coho (silver) raw (Alaska Native)'
p973
aS'Corn dried yellow (Northern Plains Indians)'
p974
aS'Salmon red (sockeye) filets with skin smoked (Alaska Native)'
p975
aS'Agave raw (Southwest)'
p976
aS'Wocas dried seeds Oregon yellow pond lily (Klamath)'
p977
aS'Hazelnuts beaked (Northern Plains Indians)'
p978
aS'Bread blue corn somiviki (Hopi)'
p979
aS'Restaurant family style macaroni & cheese from kids` menu'
p980
aS'CRACKER BARREL onion rings thickcut'
p981
aS'Restaurant Latino Arroz con habichuelas colorados (Rice And Red Beans)'
p982
aS'Syrups grenadine'
p983
aS'Imitation cheese american or cheddar low cholesterol'
p984
aS'Mayonnaise made with tofu'
p985
aS'Jams and preserves dietetic (with sodium saccharin) any flavor'
p986
aS'Beverage milkshake mix dry not chocolate'
p987
aS'Vermicelli made from soy'
p988
aS'Fish sticks meatless'
p989
aS'Luncheon slices meatless'
p990
aS'Vegetarian fillets'
p991
aS'Alcoholic beverage wine cooking'
p992
aS'Alcoholic beverage wine light'
p993
aS'Eggs scrambled frozen mixture'
p994
aS'Soybean curd cheese'
p995
aS'Vegetables mixed (corn lima beans peas green beans carrots) canned no salt added'
p996
aS'Alcoholic beverage rice (sake)'
p997
aS'Celery flakes dried'
p998
aS'Vital wheat gluten'
p999
a.