(lp0
S'alabama'
p1
aS'alaska'
p2
aS'alcoholic'
p3
aS'almond'
p4
aS'amaretto'
p5
aS'anchovy'
p6
aS'anise'
p7
aS'anniversary'
p8
aS'anthony bourdain'
p9
aS'aperitif'
p10
aS'appetizer'
p11
aS'apple'
p12
aS'apple juice'
p13
aS'apricot'
p14
aS'arizona'
p15
aS'artichoke'
p16
aS'arugula'
p17
aS'asian pear'
p18
aS'asparagus'
p19
aS'aspen'
p20
aS'atlanta'
p21
aS'australia'
p22
aS'avocado'
p23
aS'back to school'
p24
aS'backyard bbq'
p25
aS'bacon'
p26
aS'bake'
p27
aS'banana'
p28
aS'barley'
p29
aS'basil'
p30
aS'bass'
p31
aS'bastille day'
p32
aS'bean'
p33
aS'beef'
p34
aS'beef rib'
p35
aS'beef shank'
p36
aS'beef tenderloin'
p37
aS'beer'
p38
aS'beet'
p39
aS'bell pepper'
p40
aS'berry'
p41
aS'beverly hills'
p42
aS'birthday'
p43
aS'biscuit'
p44
aS'bitters'
p45
aS'blackberry'
p46
aS'blender'
p47
aS'blue cheese'
p48
aS'blueberry'
p49
aS'boil'
p50
aS'bok choy'
p51
aS'bon app\xc3\xa9tit'
p52
aS'bon app\xef\xbf\xbd\xef\xbf\xbdtit'
p53
aS'boston'
p54
aS'bourbon'
p55
aS'braise'
p56
aS'bran'
p57
aS'brandy'
p58
aS'bread'
p59
aS'breadcrumbs'
p60
aS'breakfast'
p61
aS'brie'
p62
aS'brine'
p63
aS'brisket'
p64
aS'broccoli'
p65
aS'broccoli rabe'
p66
aS'broil'
p67
aS'brooklyn'
p68
aS'brown rice'
p69
aS'brownie'
p70
aS'brunch'
p71
aS'brussel sprout'
p72
aS'buffalo'
p73
aS'buffet'
p74
aS'bulgaria'
p75
aS'bulgur'
p76
aS'burrito'
p77
aS'butter'
p78
aS'buttermilk'
p79
aS'butternut squash'
p80
aS'butterscotch/caramel'
p81
aS'cabbage'
p82
aS'cake'
p83
aS'california'
p84
aS'calvados'
p85
aS'cambridge'
p86
aS'campari'
p87
aS'camping'
p88
aS'canada'
p89
aS'candy'
p90
aS'candy thermometer'
p91
aS'cantaloupe'
p92
aS'capers'
p93
aS'caraway'
p94
aS'cardamom'
p95
aS'carrot'
p96
aS'cashew'
p97
aS'casserole/gratin'
p98
aS'cauliflower'
p99
aS'caviar'
p100
aS'celery'
p101
aS'chambord'
p102
aS'champagne'
p103
aS'chard'
p104
aS'chartreuse'
p105
aS'cheddar'
p106
aS'cheese'
p107
aS'cherry'
p108
aS'chestnut'
p109
aS'chicago'
p110
aS'chicken'
p111
aS'chickpea'
p112
aS'chile'
p113
aS'chile pepper'
p114
aS'chili'
p115
aS'chill'
p116
aS'chive'
p117
aS'chocolate'
p118
aS'christmas'
p119
aS'christmas eve'
p120
aS'cilantro'
p121
aS'cinco de mayo'
p122
aS'cinnamon'
p123
aS'citrus'
p124
aS'clam'
p125
aS'clove'
p126
aS'cobbler/crumble'
p127
aS'cocktail'
p128
aS'cocktail party'
p129
aS'coconut'
p130
aS'cod'
p131
aS'coffee'
p132
aS'coffee grinder'
p133
aS'cognac/armagnac'
p134
aS'collard greens'
p135
aS'colorado'
p136
aS'columbus'
p137
aS'condiment'
p138
aS'condiment/spread'
p139
aS'connecticut'
p140
aS'cook like a diner'
p141
aS'cookbook critic'
p142
aS'cookie'
p143
aS'cookies'
p144
aS'coriander'
p145
aS'corn'
p146
aS'cornmeal'
p147
aS'costa mesa'
p148
aS'cottage cheese'
p149
aS'couscous'
p150
aS'crab'
p151
aS'cranberry'
p152
aS'cranberry sauce'
p153
aS'cream cheese'
p154
aS'cr\xc3\xa9me de cacao'
p155
aS'cr\xc3\xaape'
p156
aS'cr\xef\xbf\xbd\xef\xbf\xbdme de cacao'
p157
aS'cuba'
p158
aS'cucumber'
p159
aS'cumin'
p160
aS'cupcake'
p161
aS'currant'
p162
aS'curry'
p163
aS'custard'
p164
aS'dairy'
p165
aS'dairy free'
p166
aS'dallas'
p167
aS'date'
p168
aS'deep-fry'
p169
aS'denver'
p170
aS'dessert'
p171
aS'digestif'
p172
aS'dill'
p173
aS'dinner'
p174
aS'dip'
p175
aS'diwali'
p176
aS'dominican republic'
p177
aS'dorie greenspan'
p178
aS'double boiler'
p179
aS'dried fruit'
p180
aS'drink'
p181
aS'drinks'
p182
aS'duck'
p183
aS'easter'
p184
aS'eau de vie'
p185
aS'edible gift'
p186
aS'egg'
p187
aS'egg nog'
p188
aS'eggplant'
p189
aS'egypt'
p190
aS'emeril lagasse'
p191
aS'endive'
p192
aS'engagement party'
p193
aS'england'
p194
aS'entertaining'
p195
aS'epi + ushg'
p196
aS'epi loves the microwave'
p197
aS'escarole'
p198
aS'fall'
p199
aS'family reunion'
p200
aS'fat free'
p201
aS"father's day"
p202
aS'fennel'
p203
aS'feta'
p204
aS'fig'
p205
aS'fish'
p206
aS'flaming hot summer'
p207
aS'flat bread'
p208
aS'florida'
p209
aS'fontina'
p210
aS'food processor'
p211
aS'fortified wine'
p212
aS'fourth of july'
p213
aS'france'
p214
aS'frangelico'
p215
aS'frankenrecipe'
p216
aS'freeze/chill'
p217
aS'freezer food'
p218
aS'friendsgiving'
p219
aS'frittata'
p220
aS'fritter'
p221
aS'frozen dessert'
p222
aS'fruit'
p223
aS'fruit juice'
p224
aS'fry'
p225
aS'game'
p226
aS'garlic'
p227
aS'georgia'
p228
aS'germany'
p229
aS'gin'
p230
aS'ginger'
p231
aS'goat cheese'
p232
aS'goose'
p233
aS'gouda'
p234
aS'gourmet'
p235
aS'graduation'
p236
aS'grains'
p237
aS'grand marnier'
p238
aS'granola'
p239
aS'grape'
p240
aS'grapefruit'
p241
aS'grappa'
p242
aS'green bean'
p243
aS'green onion/scallion'
p244
aS'grill'
p245
aS'grill/barbecue'
p246
aS'ground beef'
p247
aS'ground lamb'
p248
aS'guam'
p249
aS'guava'
p250
aS'haiti'
p251
aS'halibut'
p252
aS'halloween'
p253
aS'ham'
p254
aS'hamburger'
p255
aS'hanukkah'
p256
aS'harpercollins'
p257
aS'hawaii'
p258
aS'hazelnut'
p259
aS'healdsburg'
p260
aS'healthy'
p261
aS'herb'
p262
aS'high fiber'
p263
aS'hollywood'
p264
aS'hominy/cornmeal/masa'
p265
aS'honey'
p266
aS'honeydew'
p267
aS"hors d'oeuvre"
p268
aS'horseradish'
p269
aS'hot drink'
p270
aS'hot pepper'
p271
aS'house & garden'
p272
aS'house cocktail'
p273
aS'houston'
p274
aS'hummus'
p275
aS'ice cream'
p276
aS'ice cream machine'
p277
aS'iced coffee'
p278
aS'iced tea'
p279
aS'idaho'
p280
aS'illinois'
p281
aS'indiana'
p282
aS'iowa'
p283
aS'ireland'
p284
aS'israel'
p285
aS'italy'
p286
aS'jalape\xc3\xb1o'
p287
aS'jam or jelly'
p288
aS'jamaica'
p289
aS'japan'
p290
aS'jerusalem artichoke'
p291
aS'juicer'
p292
aS'j\xc3\xadcama'
p293
aS'kahl\xc3\xbaa'
p294
aS'kale'
p295
aS'kansas'
p296
aS'kansas city'
p297
aS'kentucky'
p298
aS'kentucky derby'
p299
aS'kid-friendly'
p300
aS'kidney friendly'
p301
aS'kirsch'
p302
aS'kitchen olympics'
p303
aS'kiwi'
p304
aS'kosher'
p305
aS'kosher for passover'
p306
aS'kumquat'
p307
aS'kwanzaa'
p308
aS'labor day'
p309
aS'lamb'
p310
aS'lamb chop'
p311
aS'lamb shank'
p312
aS'lancaster'
p313
aS'las vegas'
p314
aS'lasagna'
p315
aS'leafy green'
p316
aS'leek'
p317
aS'legume'
p318
aS'lemon'
p319
aS'lemon juice'
p320
aS'lemongrass'
p321
aS'lentil'
p322
aS'lettuce'
p323
aS'lima bean'
p324
aS'lime'
p325
aS'lime juice'
p326
aS'lingonberry'
p327
aS'liqueur'
p328
aS'lobster'
p329
aS'london'
p330
aS'long beach'
p331
aS'los angeles'
p332
aS'louisiana'
p333
aS'louisville'
p334
aS'low cal'
p335
aS'low carb'
p336
aS'low cholesterol'
p337
aS'low fat'
p338
aS'low sodium'
p339
aS'low sugar'
p340
aS'low/no sugar'
p341
aS'lunar new year'
p342
aS'lunch'
p343
aS'lychee'
p344
aS'macadamia nut'
p345
aS'macaroni and cheese'
p346
aS'maine'
p347
aS'mandoline'
p348
aS'mango'
p349
aS'maple syrup'
p350
aS'mardi gras'
p351
aS'margarita'
p352
aS'marinade'
p353
aS'marinate'
p354
aS'marsala'
p355
aS'marscarpone'
p356
aS'marshmallow'
p357
aS'martini'
p358
aS'maryland'
p359
aS'massachusetts'
p360
aS'mayonnaise'
p361
aS'meat'
p362
aS'meatball'
p363
aS'meatloaf'
p364
aS'melon'
p365
aS'mexico'
p366
aS'mezcal'
p367
aS'miami'
p368
aS'michigan'
p369
aS'microwave'
p370
aS'midori'
p371
aS'milk/cream'
p372
aS'minneapolis'
p373
aS'minnesota'
p374
aS'mint'
p375
aS'mississippi'
p376
aS'missouri'
p377
aS'mixer'
p378
aS'molasses'
p379
aS'monterey jack'
p380
aS'mortar and pestle'
p381
aS"mother's day"
p382
aS'mozzarella'
p383
aS'muffin'
p384
aS'mushroom'
p385
aS'mussel'
p386
aS'mustard'
p387
aS'mustard greens'
p388
aS'nancy silverton'
p389
aS'nebraska'
p390
aS'nectarine'
p391
aS'new hampshire'
p392
aS'new jersey'
p393
aS'new mexico'
p394
aS'new orleans'
p395
aS"new year's day"
p396
aS"new year's eve"
p397
aS'new york'
p398
aS'no meat, no problem'
p399
aS'no sugar added'
p400
aS'no-cook'
p401
aS'non-alcoholic'
p402
aS'noodle'
p403
aS'north carolina'
p404
aS'nut'
p405
aS'nutmeg'
p406
aS'oat'
p407
aS'oatmeal'
p408
aS'octopus'
p409
aS'ohio'
p410
aS'oklahoma'
p411
aS'okra'
p412
aS'oktoberfest'
p413
aS'olive'
p414
aS'omelet'
p415
aS'one-pot meal'
p416
aS'onion'
p417
aS'orange'
p418
aS'orange juice'
p419
aS'oregano'
p420
aS'oregon'
p421
aS'organic'
p422
aS'orzo'
p423
aS'oscars'
p424
aS'oyster'
p425
aS'pacific palisades'
p426
aS'paleo'
p427
aS'pan-fry'
p428
aS'pancake'
p429
aS'papaya'
p430
aS'paprika'
p431
aS'parade'
p432
aS'paris'
p433
aS'parmesan'
p434
aS'parsley'
p435
aS'parsnip'
p436
aS'party'
p437
aS'pasadena'
p438
aS'passion fruit'
p439
aS'passover'
p440
aS'pasta'
p441
aS'pasta maker'
p442
aS'pastry'
p443
aS'pea'
p444
aS'peach'
p445
aS'peanut'
p446
aS'peanut butter'
p447
aS'peanut free'
p448
aS'pear'
p449
aS'pecan'
p450
aS'pennsylvania'
p451
aS'pepper'
p452
aS'pernod'
p453
aS'persian new year'
p454
aS'persimmon'
p455
aS'peru'
p456
aS'pescatarian'
p457
aS'philippines'
p458
aS'phyllo/puff pastry dough'
p459
aS'pickles'
p460
aS'picnic'
p461
aS'pie'
p462
aS'pine nut'
p463
aS'pineapple'
p464
aS'pistachio'
p465
aS'pittsburgh'
p466
aS'pizza'
p467
aS'plantain'
p468
aS'plum'
p469
aS'poach'
p470
aS'poblano'
p471
aS'poker/game night'
p472
aS'pomegranate'
p473
aS'pomegranate juice'
p474
aS'poppy'
p475
aS'pork'
p476
aS'pork chop'
p477
aS'pork rib'
p478
aS'pork tenderloin'
p479
aS'port'
p480
aS'portland'
p481
aS'pot pie'
p482
aS'potato'
p483
aS'potato salad'
p484
aS'potluck'
p485
aS'poultry'
p486
aS'poultry sausage'
p487
aS'pressure cooker'
p488
aS'prosciutto'
p489
aS'providence'
p490
aS'prune'
p491
aS'pumpkin'
p492
aS'punch'
p493
aS'purim'
p494
aS'quail'
p495
aS'quiche'
p496
aS'quick & easy'
p497
aS'quick and healthy'
p498
aS'quince'
p499
aS'quinoa'
p500
aS'rabbit'
p501
aS'rack of lamb'
p502
aS'radicchio'
p503
aS'radish'
p504
aS'raisin'
p505
aS'ramadan'
p506
aS'ramekin'
p507
aS'raspberry'
p508
aS'raw'
p509
aS'red wine'
p510
aS'rhode island'
p511
aS'rhubarb'
p512
aS'rice'
p513
aS'ricotta'
p514
aS'roast'
p515
aS'root vegetable'
p516
aS'rosemary'
p517
aS'rosh hashanah/yom kippur'
p518
aS'ros\xc3\xa9'
p519
aS'rub'
p520
aS'rum'
p521
aS'rutabaga'
p522
aS'rye'
p523
aS'saffron'
p524
aS'sage'
p525
aS'sake'
p526
aS'salad'
p527
aS'salad dressing'
p528
aS'salmon'
p529
aS'salsa'
p530
aS'san francisco'
p531
aS'sandwich'
p532
aS'sandwich theory'
p533
aS'sangria'
p534
aS'santa monica'
p535
aS'sardine'
p536
aS'sauce'
p537
aS'sausage'
p538
aS'saut\xc3\xa9'
p539
aS'scallop'
p540
aS'scotch'
p541
aS'seafood'
p542
aS'seattle'
p543
aS'seed'
p544
aS'self'
p545
aS'semolina'
p546
aS'sesame'
p547
aS'sesame oil'
p548
aS'shallot'
p549
aS'shavuot'
p550
aS'shellfish'
p551
aS'sherry'
p552
aS'shower'
p553
aS'shrimp'
p554
aS'side'
p555
aS'simmer'
p556
aS'skewer'
p557
aS'slow cooker'
p558
aS'smoker'
p559
aS'smoothie'
p560
aS'snapper'
p561
aS'sorbet'
p562
aS'souffl\xc3\xa9/meringue'
p563
aS'soup/stew'
p564
aS'sour cream'
p565
aS'sourdough'
p566
aS'south carolina'
p567
aS'soy'
p568
aS'soy free'
p569
aS'soy sauce'
p570
aS'spain'
p571
aS'sparkling wine'
p572
aS'spice'
p573
aS'spinach'
p574
aS'spirit'
p575
aS'spring'
p576
aS'spritzer'
p577
aS'squash'
p578
aS'squid'
p579
aS'st. louis'
p580
aS"st. patrick's day"
p581
aS'steak'
p582
aS'steam'
p583
aS'stew'
p584
aS'stir-fry'
p585
aS'stock'
p586
aS'strawberry'
p587
aS'stuffing/dressing'
p588
aS'sugar conscious'
p589
aS'sugar snap pea'
p590
aS'sukkot'
p591
aS'summer'
p592
aS'super bowl'
p593
aS'suzanne goin'
p594
aS'sweet potato/yam'
p595
aS'swiss cheese'
p596
aS'switzerland'
p597
aS'swordfish'
p598
aS'taco'
p599
aS'tailgating'
p600
aS'tamarind'
p601
aS'tangerine'
p602
aS'tapioca'
p603
aS'tarragon'
p604
aS'tart'
p605
aS'tea'
p606
aS'tennessee'
p607
aS'tequila'
p608
aS'tested & improved'
p609
aS'texas'
p610
aS'thanksgiving'
p611
aS'thyme'
p612
aS'tilapia'
p613
aS'tofu'
p614
aS'tomatillo'
p615
aS'tomato'
p616
aS'tortillas'
p617
aS'tree nut'
p618
aS'tree nut free'
p619
aS'triple sec'
p620
aS'tropical fruit'
p621
aS'trout'
p622
aS'tuna'
p623
aS'turnip'
p624
aS'utah'
p625
aS"valentine's day"
p626
aS'vanilla'
p627
aS'veal'
p628
aS'vegan'
p629
aS'vegetable'
p630
aS'vegetarian'
p631
aS'venison'
p632
aS'vermont'
p633
aS'vermouth'
p634
aS'vinegar'
p635
aS'virginia'
p636
aS'vodka'
p637
aS'waffle'
p638
aS'walnut'
p639
aS'wasabi'
p640
aS'washington'
p641
aS'washington, d.c.'
p642
aS'watercress'
p643
aS'watermelon'
p644
aS'wedding'
p645
aS'weelicious'
p646
aS'west virginia'
p647
aS'westwood'
p648
aS'wheat/gluten-free'
p649
aS'whiskey'
p650
aS'white wine'
p651
aS'whole wheat'
p652
aS'wild rice'
p653
aS'windsor'
p654
aS'wine'
p655
aS'winter'
p656
aS'wisconsin'
p657
aS'wok'
p658
aS'yellow squash'
p659
aS'yogurt'
p660
aS'yonkers'
p661
aS'yuca'
p662
aS'zucchini'
p663
aS'cookbooks'
p664
aS'leftovers'
p665
aS'snack'
p666
aS'snack week'
p667
aS'turkey'
p668
a.